target datalayout = "e-m:e-p270:32:32-p271:32:32-p272:64:64-i64:64-i128:128-f80:128-n8:16:32:64-S128"
target triple = "x86_64-pc-linux-gnu"

@.str.10 = private unnamed_addr constant [8 x i8] c"PALETTE\00", align 1

; Function Attrs: nounwind uwtable
define i32 @H5IM_find_palette(i64 noundef %0) #0 {
  %2 = alloca i64, align 8
  store i64 %0, ptr %2, align 8, !tbaa !3
  %3 = load i64, ptr %2, align 8, !tbaa !3
  %4 = call i32 @H5Aiterate2(i64 noundef %3, i32 noundef 0, i32 noundef 0, ptr noundef null, ptr noundef @find_palette, ptr noundef null)
  ret i32 %4
}

; Function Attrs: nounwind uwtable
define i32 @H5IMget_palette_info(i64 noundef %0, ptr noundef %1, i32 noundef %2, ptr noundef %3) #0 {
  %5 = alloca i32, align 4
  %6 = alloca i64, align 8
  %7 = alloca ptr, align 8
  %8 = alloca i32, align 4
  %9 = alloca ptr, align 8
  %10 = alloca i64, align 8
  %11 = alloca i32, align 4
  %12 = alloca i64, align 8
  %13 = alloca i64, align 8
  %14 = alloca i64, align 8
  %15 = alloca i64, align 8
  %16 = alloca i64, align 8
  %17 = alloca ptr, align 8
  %18 = alloca i64, align 8
  %19 = alloca i64, align 8
  %20 = alloca [2 x i64], align 16
  %21 = alloca i32, align 4
  store i64 %0, ptr %6, align 8, !tbaa !3
  store ptr %1, ptr %7, align 8, !tbaa !7
  store i32 %2, ptr %8, align 4, !tbaa !15
  store ptr %3, ptr %9, align 8, !tbaa !17
  call void @llvm.lifetime.start.p0(i64 8, ptr %10) #7
  call void @llvm.lifetime.start.p0(i64 4, ptr %11) #7
  call void @llvm.lifetime.start.p0(i64 8, ptr %12) #7
  store i64 -1, ptr %12, align 8, !tbaa !3
  call void @llvm.lifetime.start.p0(i64 8, ptr %13) #7
  call void @llvm.lifetime.start.p0(i64 8, ptr %14) #7
  store i64 -1, ptr %14, align 8, !tbaa !3
  call void @llvm.lifetime.start.p0(i64 8, ptr %15) #7
  call void @llvm.lifetime.start.p0(i64 8, ptr %16) #7
  call void @llvm.lifetime.start.p0(i64 8, ptr %17) #7
  call void @llvm.lifetime.start.p0(i64 8, ptr %18) #7
  call void @llvm.lifetime.start.p0(i64 8, ptr %19) #7
  call void @llvm.lifetime.start.p0(i64 16, ptr %20) #7
  %22 = load ptr, ptr %7, align 8, !tbaa !7
  %23 = icmp eq ptr %22, null
  br i1 %23, label %24, label %25

24:                                               ; preds = %4
  store i32 -1, ptr %5, align 4
  store i32 1, ptr %21, align 4
  br label %137

25:                                               ; preds = %4
  %26 = load i64, ptr %6, align 8, !tbaa !3
  %27 = load ptr, ptr %7, align 8, !tbaa !7
  %28 = call i64 @H5Dopen2(i64 noundef %26, ptr noundef %27, i64 noundef 0)
  store i64 %28, ptr %10, align 8, !tbaa !3
  %29 = icmp slt i64 %28, 0
  br i1 %29, label %30, label %31

30:                                               ; preds = %25
  store i32 -1, ptr %5, align 4
  store i32 1, ptr %21, align 4
  br label %137

31:                                               ; preds = %25
  %32 = load i64, ptr %10, align 8, !tbaa !3
  %33 = call i32 @H5IM_find_palette(i64 noundef %32)
  store i32 %33, ptr %11, align 4, !tbaa !15
  %34 = load i32, ptr %11, align 4, !tbaa !15
  %35 = icmp eq i32 %34, 1
  br i1 %35, label %36, label %122

36:                                               ; preds = %31
  %37 = load i64, ptr %10, align 8, !tbaa !3
  %38 = call i64 @H5Aopen(i64 noundef %37, ptr noundef @.str.10, i64 noundef 0)
  store i64 %38, ptr %13, align 8, !tbaa !3
  %39 = icmp slt i64 %38, 0
  br i1 %39, label %40, label %41

40:                                               ; preds = %36
  br label %128

41:                                               ; preds = %36
  %42 = load i64, ptr %13, align 8, !tbaa !3
  %43 = call i64 @H5Aget_type(i64 noundef %42)
  store i64 %43, ptr %12, align 8, !tbaa !3
  %44 = icmp slt i64 %43, 0
  br i1 %44, label %45, label %46

45:                                               ; preds = %41
  br label %128

46:                                               ; preds = %41
  %47 = load i64, ptr %12, align 8, !tbaa !3
  %48 = call i32 @H5Tget_class(i64 noundef %47)
  %49 = icmp slt i32 %48, 0
  br i1 %49, label %50, label %51

50:                                               ; preds = %46
  br label %128

51:                                               ; preds = %46
  %52 = load i64, ptr %13, align 8, !tbaa !3
  %53 = call i64 @H5Aget_space(i64 noundef %52)
  store i64 %53, ptr %14, align 8, !tbaa !3
  %54 = icmp slt i64 %53, 0
  br i1 %54, label %55, label %56

55:                                               ; preds = %51
  br label %128

56:                                               ; preds = %51
  %57 = load i64, ptr %14, align 8, !tbaa !3
  %58 = call i64 @H5Sget_simple_extent_npoints(i64 noundef %57)
  store i64 %58, ptr %15, align 8, !tbaa !3
  %59 = load i64, ptr %15, align 8, !tbaa !3
  store i64 %59, ptr %16, align 8, !tbaa !3
  %60 = load i64, ptr %16, align 8, !tbaa !3
  %61 = mul i64 8, %60
  %62 = call noalias ptr @malloc(i64 noundef %61) #9
  store ptr %62, ptr %17, align 8, !tbaa !17
  %63 = load i64, ptr %13, align 8, !tbaa !3
  %64 = load i64, ptr %12, align 8, !tbaa !3
  %65 = load ptr, ptr %17, align 8, !tbaa !17
  %66 = call i32 @H5Aread(i64 noundef %63, i64 noundef %64, ptr noundef %65)
  %67 = icmp slt i32 %66, 0
  br i1 %67, label %68, label %69

68:                                               ; preds = %56
  br label %128

69:                                               ; preds = %56
  %70 = load i64, ptr %10, align 8, !tbaa !3
  %71 = load ptr, ptr %17, align 8, !tbaa !17
  %72 = load i32, ptr %8, align 4, !tbaa !15
  %73 = sext i32 %72 to i64
  %74 = getelementptr inbounds i64, ptr %71, i64 %73
  %75 = call i64 @H5Rdereference2(i64 noundef %70, i64 noundef 0, i32 noundef 0, ptr noundef %74)
  store i64 %75, ptr %18, align 8, !tbaa !3
  %76 = icmp slt i64 %75, 0
  br i1 %76, label %77, label %78

77:                                               ; preds = %69
  br label %128

78:                                               ; preds = %69
  %79 = load i64, ptr %18, align 8, !tbaa !3
  %80 = call i64 @H5Dget_space(i64 noundef %79)
  store i64 %80, ptr %19, align 8, !tbaa !3
  %81 = icmp slt i64 %80, 0
  br i1 %81, label %82, label %83

82:                                               ; preds = %78
  br label %128

83:                                               ; preds = %78
  %84 = load i64, ptr %19, align 8, !tbaa !3
  %85 = call i32 @H5Sget_simple_extent_ndims(i64 noundef %84)
  %86 = icmp slt i32 %85, 0
  br i1 %86, label %87, label %88

87:                                               ; preds = %83
  br label %128

88:                                               ; preds = %83
  %89 = load i64, ptr %19, align 8, !tbaa !3
  %90 = load ptr, ptr %9, align 8, !tbaa !17
  %91 = getelementptr inbounds [2 x i64], ptr %20, i64 0, i64 0
  %92 = call i32 @H5Sget_simple_extent_dims(i64 noundef %89, ptr noundef %90, ptr noundef %91)
  %93 = icmp slt i32 %92, 0
  br i1 %93, label %94, label %95

94:                                               ; preds = %88
  br label %128

95:                                               ; preds = %88
  %96 = load i64, ptr %18, align 8, !tbaa !3
  %97 = call i32 @H5Dclose(i64 noundef %96)
  %98 = icmp slt i32 %97, 0
  br i1 %98, label %99, label %100

99:                                               ; preds = %95
  br label %128

100:                                              ; preds = %95
  %101 = load i64, ptr %19, align 8, !tbaa !3
  %102 = call i32 @H5Sclose(i64 noundef %101)
  %103 = icmp slt i32 %102, 0
  br i1 %103, label %104, label %105

104:                                              ; preds = %100
  br label %128

105:                                              ; preds = %100
  %106 = load i64, ptr %14, align 8, !tbaa !3
  %107 = call i32 @H5Sclose(i64 noundef %106)
  %108 = icmp slt i32 %107, 0
  br i1 %108, label %109, label %110

109:                                              ; preds = %105
  br label %128

110:                                              ; preds = %105
  %111 = load i64, ptr %12, align 8, !tbaa !3
  %112 = call i32 @H5Tclose(i64 noundef %111)
  %113 = icmp slt i32 %112, 0
  br i1 %113, label %114, label %115

114:                                              ; preds = %110
  br label %128

115:                                              ; preds = %110
  %116 = load i64, ptr %13, align 8, !tbaa !3
  %117 = call i32 @H5Aclose(i64 noundef %116)
  %118 = icmp slt i32 %117, 0
  br i1 %118, label %119, label %120

119:                                              ; preds = %115
  br label %128

120:                                              ; preds = %115
  %121 = load ptr, ptr %17, align 8, !tbaa !17
  call void @free(ptr noundef %121) #7
  br label %122

122:                                              ; preds = %120, %31
  %123 = load i64, ptr %10, align 8, !tbaa !3
  %124 = call i32 @H5Dclose(i64 noundef %123)
  %125 = icmp slt i32 %124, 0
  br i1 %125, label %126, label %127

126:                                              ; preds = %122
  store i32 -1, ptr %5, align 4
  store i32 1, ptr %21, align 4
  br label %137

127:                                              ; preds = %122
  store i32 0, ptr %5, align 4
  store i32 1, ptr %21, align 4
  br label %137

128:                                              ; preds = %119, %114, %109, %104, %99, %94, %87, %82, %77, %68, %55, %50, %45, %40
  %129 = load i64, ptr %10, align 8, !tbaa !3
  %130 = call i32 @H5Dclose(i64 noundef %129)
  %131 = load i64, ptr %14, align 8, !tbaa !3
  %132 = call i32 @H5Sclose(i64 noundef %131)
  %133 = load i64, ptr %12, align 8, !tbaa !3
  %134 = call i32 @H5Tclose(i64 noundef %133)
  %135 = load i64, ptr %13, align 8, !tbaa !3
  %136 = call i32 @H5Aclose(i64 noundef %135)
  store i32 -1, ptr %5, align 4
  store i32 1, ptr %21, align 4
  br label %137

137:                                              ; preds = %128, %127, %126, %30, %24
  call void @llvm.lifetime.end.p0(i64 16, ptr %20) #7
  call void @llvm.lifetime.end.p0(i64 8, ptr %19) #7
  call void @llvm.lifetime.end.p0(i64 8, ptr %18) #7
  call void @llvm.lifetime.end.p0(i64 8, ptr %17) #7
  call void @llvm.lifetime.end.p0(i64 8, ptr %16) #7
  call void @llvm.lifetime.end.p0(i64 8, ptr %15) #7
  call void @llvm.lifetime.end.p0(i64 8, ptr %14) #7
  call void @llvm.lifetime.end.p0(i64 8, ptr %13) #7
  call void @llvm.lifetime.end.p0(i64 8, ptr %12) #7
  call void @llvm.lifetime.end.p0(i64 4, ptr %11) #7
  call void @llvm.lifetime.end.p0(i64 8, ptr %10) #7
  %138 = load i32, ptr %5, align 4
  ret i32 %138
}