; Function Attrs: nounwind uwtable
define range(i32 -1, 1) i32 @H5IMget_palette_info(i64 noundef %0, ptr noundef %1, i32 noundef %2, ptr noundef %3) local_unnamed_addr #0 {
  %5 = alloca [2 x i64], align 16
  call void @llvm.lifetime.start.p0(i64 16, ptr nonnull %5) #8
  %6 = icmp eq ptr %1, null
  br i1 %6, label %68, label %7

7:                                                ; preds = %4
  %8 = tail call i64 @H5Dopen2(i64 noundef %0, ptr noundef nonnull %1, i64 noundef 0) #8
  %9 = icmp slt i64 %8, 0
  br i1 %9, label %68, label %10

10:                                               ; preds = %7
  %11 = tail call i32 @H5Aiterate2(i64 noundef %8, i32 noundef 0, i32 noundef 0, ptr noundef null, ptr noundef nonnull @find_palette, ptr noundef null) #8
  %12 = icmp eq i32 %11, 1
  br i1 %12, label %13, label %61

13:                                               ; preds = %10
  %14 = tail call i64 @H5Aopen(i64 noundef %8, ptr noundef nonnull @.str.10, i64 noundef 0) #8
  %15 = icmp slt i64 %14, 0
  br i1 %15, label %63, label %16

16:                                               ; preds = %13
  %17 = tail call i64 @H5Aget_type(i64 noundef %14) #8
  %18 = icmp slt i64 %17, 0
  br i1 %18, label %63, label %19

19:                                               ; preds = %16
  %20 = tail call i32 @H5Tget_class(i64 noundef %17) #8
  %21 = icmp slt i32 %20, 0
  br i1 %21, label %63, label %22

22:                                               ; preds = %19
  %23 = tail call i64 @H5Aget_space(i64 noundef %14) #8
  %24 = icmp slt i64 %23, 0
  br i1 %24, label %63, label %25

25:                                               ; preds = %22
  %26 = tail call i64 @H5Sget_simple_extent_npoints(i64 noundef %23) #8
  %27 = shl i64 %26, 3
  %28 = tail call noalias ptr @malloc(i64 noundef %27) #10
  %29 = tail call i32 @H5Aread(i64 noundef %14, i64 noundef %17, ptr noundef %28) #8
  %30 = icmp slt i32 %29, 0
  br i1 %30, label %63, label %31

31:                                               ; preds = %25
  %32 = sext i32 %2 to i64
  %33 = getelementptr inbounds i64, ptr %28, i64 %32
  %34 = tail call i64 @H5Rdereference2(i64 noundef %8, i64 noundef 0, i32 noundef 0, ptr noundef %33) #8
  %35 = icmp slt i64 %34, 0
  br i1 %35, label %63, label %36

36:                                               ; preds = %31
  %37 = tail call i64 @H5Dget_space(i64 noundef %34) #8
  %38 = icmp slt i64 %37, 0
  br i1 %38, label %63, label %39

39:                                               ; preds = %36
  %40 = tail call i32 @H5Sget_simple_extent_ndims(i64 noundef %37) #8
  %41 = icmp slt i32 %40, 0
  br i1 %41, label %63, label %42

42:                                               ; preds = %39
  %43 = call i32 @H5Sget_simple_extent_dims(i64 noundef %37, ptr noundef %3, ptr noundef nonnull %5) #8
  %44 = icmp slt i32 %43, 0
  br i1 %44, label %63, label %45

45:                                               ; preds = %42
  %46 = call i32 @H5Dclose(i64 noundef %34) #8
  %47 = icmp slt i32 %46, 0
  br i1 %47, label %63, label %48

48:                                               ; preds = %45
  %49 = call i32 @H5Sclose(i64 noundef %37) #8
  %50 = icmp slt i32 %49, 0
  br i1 %50, label %63, label %51

51:                                               ; preds = %48
  %52 = call i32 @H5Sclose(i64 noundef %23) #8
  %53 = icmp slt i32 %52, 0
  br i1 %53, label %63, label %54

54:                                               ; preds = %51
  %55 = call i32 @H5Tclose(i64 noundef %17) #8
  %56 = icmp slt i32 %55, 0
  br i1 %56, label %63, label %57

57:                                               ; preds = %54
  %58 = call i32 @H5Aclose(i64 noundef %14) #8
  %59 = icmp slt i32 %58, 0
  br i1 %59, label %63, label %60

60:                                               ; preds = %57
  call void @free(ptr noundef %28) #8
  br label %61

61:                                               ; preds = %60, %10
  %62 = call i32 @H5Dclose(i64 noundef %8) #8
  %.lobit = ashr i32 %62, 31
  br label %68

63:                                               ; preds = %57, %54, %51, %48, %45, %42, %39, %36, %31, %25, %22, %19, %16, %13
  %.034 = phi i64 [ -1, %13 ], [ -1, %16 ], [ -1, %19 ], [ %23, %22 ], [ %23, %25 ], [ %23, %31 ], [ %23, %36 ], [ %23, %39 ], [ %23, %42 ], [ %23, %45 ], [ %23, %48 ], [ %23, %51 ], [ %23, %54 ], [ %23, %57 ]
  %.033 = phi i64 [ -1, %13 ], [ %17, %16 ], [ %17, %19 ], [ %17, %22 ], [ %17, %25 ], [ %17, %31 ], [ %17, %36 ], [ %17, %39 ], [ %17, %42 ], [ %17, %45 ], [ %17, %48 ], [ %17, %51 ], [ %17, %54 ], [ %17, %57 ]
  %64 = call i32 @H5Dclose(i64 noundef %8) #8
  %65 = call i32 @H5Sclose(i64 noundef %.034) #8
  %66 = call i32 @H5Tclose(i64 noundef %.033) #8
  %67 = call i32 @H5Aclose(i64 noundef %14) #8
  br label %68

68:                                               ; preds = %61, %7, %4, %63
  %.0 = phi i32 [ -1, %63 ], [ -1, %4 ], [ -1, %7 ], [ %.lobit, %61 ]
  call void @llvm.lifetime.end.p0(i64 16, ptr nonnull %5) #8
  ret i32 %.0
}